target datalayout = "e-m:e-p270:32:32-p271:32:32-p272:64:64-i64:64-i128:128-f80:128-n8:16:32:64-S128"
target triple = "x86_64-pc-linux-gnu"

%"class.pbrt::Point2.1" = type { %"class.pbrt::Tuple2.2" }
%"class.pbrt::Tuple2.2" = type { i32, i32 }
%"class.pbrt::MIPMap" = type <{ %"class.pstd::vector", ptr, i32, %"struct.pbrt::MIPMapFilterOptions", [4 x i8] }>
%"class.pstd::vector" = type { %"class.pstd::pmr::polymorphic_allocator", ptr, i64, i64 }
%"class.pstd::pmr::polymorphic_allocator" = type { ptr }
%"struct.pbrt::MIPMapFilterOptions" = type { i32, float }
%"struct.pbrt::WrapMode2D" = type { %"class.pstd::array" }
%"class.pstd::array" = type { [2 x i32] }
%"class.pstd::pmr::polymorphic_allocator.11" = type { ptr }
%"class.pbrt::Image" = type { i32, %"class.pbrt::Point2.1", %"class.pstd::vector.4", %"class.pbrt::ColorEncoding", %"class.pstd::vector.6", %"class.pstd::vector.8", %"class.pstd::vector.10" }
%"class.pstd::vector.4" = type { %"class.pstd::pmr::polymorphic_allocator.5", ptr, i64, i64 }
%"class.pstd::pmr::polymorphic_allocator.5" = type { ptr }
%"class.pbrt::ColorEncoding" = type { %"class.pbrt::TaggedPointer" }
%"class.pbrt::TaggedPointer" = type { i64 }
%"class.pstd::vector.6" = type { %"class.pstd::pmr::polymorphic_allocator.7", ptr, i64, i64 }
%"class.pstd::pmr::polymorphic_allocator.7" = type { ptr }
%"class.pstd::vector.8" = type { %"class.pstd::pmr::polymorphic_allocator.9", ptr, i64, i64 }
%"class.pstd::pmr::polymorphic_allocator.9" = type { ptr }
%"class.pstd::vector.10" = type { %"class.pstd::pmr::polymorphic_allocator.11", ptr, i64, i64 }
%"class.std::initializer_list.43" = type { ptr, i64 }

; Function Attrs: mustprogress nounwind uwtable
define linkonce_odr dso_local noundef i64 @_ZNKSt16initializer_listIN4pbrt8WrapModeEE4sizeEv(ptr noundef nonnull align 8 dereferenceable(16) %0) #6 comdat align 2 {
  %2 = alloca ptr, align 8
  store ptr %0, ptr %2, align 8, !tbaa !200
  %3 = load ptr, ptr %2, align 8
  %4 = getelementptr inbounds nuw %"class.std::initializer_list.43", ptr %3, i32 0, i32 1
  %5 = load i64, ptr %4, align 8, !tbaa !95
  ret i64 %5
}

; Function Attrs: mustprogress nounwind uwtable
define linkonce_odr dso_local noundef ptr @_ZNKSt16initializer_listIN4pbrt8WrapModeEE3endEv(ptr noundef nonnull align 8 dereferenceable(16) %0) #6 comdat align 2 {
  %2 = alloca ptr, align 8
  store ptr %0, ptr %2, align 8, !tbaa !200
  %3 = load ptr, ptr %2, align 8
  %4 = call noundef ptr @_ZNKSt16initializer_listIN4pbrt8WrapModeEE5beginEv(ptr noundef nonnull align 8 dereferenceable(16) %3) #19
  %5 = call noundef i64 @_ZNKSt16initializer_listIN4pbrt8WrapModeEE4sizeEv(ptr noundef nonnull align 8 dereferenceable(16) %3) #19
  %6 = getelementptr inbounds nuw i32, ptr %4, i64 %5
  ret ptr %6
}

; Function Attrs: mustprogress nounwind uwtable
define linkonce_odr dso_local noundef ptr @_ZNKSt16initializer_listIN4pbrt8WrapModeEE5beginEv(ptr noundef nonnull align 8 dereferenceable(16) %0) #6 comdat align 2 {
  %2 = alloca ptr, align 8
  store ptr %0, ptr %2, align 8, !tbaa !200
  %3 = load ptr, ptr %2, align 8
  %4 = getelementptr inbounds nuw %"class.std::initializer_list.43", ptr %3, i32 0, i32 0
  %5 = load ptr, ptr %4, align 8, !tbaa !93
  ret ptr %5
}

; Function Attrs: mustprogress nounwind uwtable
define linkonce_odr dso_local void @_ZN4pstd5arrayIN4pbrt8WrapModeELi2EEC2ESt16initializer_listIS2_E(ptr noundef nonnull align 4 dereferenceable(8) %0, ptr %1, i64 %2) unnamed_addr #6 comdat align 2 {
  %4 = alloca %"class.std::initializer_list.43", align 8
  %5 = alloca ptr, align 8
  %6 = alloca i64, align 8
  %7 = alloca ptr, align 8
  %8 = alloca ptr, align 8
  %9 = alloca ptr, align 8
  %10 = alloca ptr, align 8
  %11 = getelementptr inbounds nuw { ptr, i64 }, ptr %4, i32 0, i32 0
  store ptr %1, ptr %11, align 8
  %12 = getelementptr inbounds nuw { ptr, i64 }, ptr %4, i32 0, i32 1
  store i64 %2, ptr %12, align 8
  store ptr %0, ptr %5, align 8, !tbaa !198
  %13 = load ptr, ptr %5, align 8
  %14 = getelementptr inbounds nuw %"class.pstd::array", ptr %13, i32 0, i32 0
  %15 = getelementptr inbounds i32, ptr %14, i64 2
  br label %16

16:                                               ; preds = %16, %3
  %17 = phi ptr [ %14, %3 ], [ %18, %16 ]
  store i32 0, ptr %17, align 4, !tbaa !68
  %18 = getelementptr inbounds i32, ptr %17, i64 1
  %19 = icmp eq ptr %18, %15
  br i1 %19, label %20, label %16

20:                                               ; preds = %16
  call void @llvm.lifetime.start.p0(i64 8, ptr %6) #19
  store i64 0, ptr %6, align 8, !tbaa !96
  call void @llvm.lifetime.start.p0(i64 8, ptr %7) #19
  store ptr %4, ptr %7, align 8, !tbaa !200
  call void @llvm.lifetime.start.p0(i64 8, ptr %8) #19
  %21 = load ptr, ptr %7, align 8, !tbaa !200
  %22 = call noundef ptr @_ZNKSt16initializer_listIN4pbrt8WrapModeEE5beginEv(ptr noundef nonnull align 8 dereferenceable(16) %21) #19
  store ptr %22, ptr %8, align 8, !tbaa !56
  call void @llvm.lifetime.start.p0(i64 8, ptr %9) #19
  %23 = load ptr, ptr %7, align 8, !tbaa !200
  %24 = call noundef ptr @_ZNKSt16initializer_listIN4pbrt8WrapModeEE3endEv(ptr noundef nonnull align 8 dereferenceable(16) %23) #19
  store ptr %24, ptr %9, align 8, !tbaa !56
  br label %25

25:                                               ; preds = %38, %20
  %26 = load ptr, ptr %8, align 8, !tbaa !56
  %27 = load ptr, ptr %9, align 8, !tbaa !56
  %28 = icmp ne ptr %26, %27
  br i1 %28, label %30, label %29

29:                                               ; preds = %25
  call void @llvm.lifetime.end.p0(i64 8, ptr %9) #19
  call void @llvm.lifetime.end.p0(i64 8, ptr %8) #19
  call void @llvm.lifetime.end.p0(i64 8, ptr %7) #19
  br label %41

30:                                               ; preds = %25
  call void @llvm.lifetime.start.p0(i64 8, ptr %10) #19
  %31 = load ptr, ptr %8, align 8, !tbaa !56
  store ptr %31, ptr %10, align 8, !tbaa !56
  %32 = load ptr, ptr %10, align 8, !tbaa !56
  %33 = load i32, ptr %32, align 4, !tbaa !68
  %34 = getelementptr inbounds nuw %"class.pstd::array", ptr %13, i32 0, i32 0
  %35 = load i64, ptr %6, align 8, !tbaa !96
  %36 = add i64 %35, 1
  store i64 %36, ptr %6, align 8, !tbaa !96
  %37 = getelementptr inbounds nuw [2 x i32], ptr %34, i64 0, i64 %35
  store i32 %33, ptr %37, align 4, !tbaa !68
  call void @llvm.lifetime.end.p0(i64 8, ptr %10) #19
  br label %38

38:                                               ; preds = %30
  %39 = load ptr, ptr %8, align 8, !tbaa !56
  %40 = getelementptr inbounds nuw i32, ptr %39, i32 1
  store ptr %40, ptr %8, align 8, !tbaa !56
  br label %25

41:                                               ; preds = %29
  call void @llvm.lifetime.end.p0(i64 8, ptr %6) #19
  ret void
}

; Function Attrs: mustprogress uwtable
define linkonce_odr dso_local void @_ZN4pbrt10WrapMode2DC2ENS_8WrapModeE(ptr noundef nonnull align 4 dereferenceable(8) %0, i32 noundef %1) unnamed_addr #1 comdat align 2 {
  %3 = alloca ptr, align 8
  %4 = alloca i32, align 4
  %5 = alloca %"class.std::initializer_list.43", align 8
  %6 = alloca [2 x i32], align 4
  store ptr %0, ptr %3, align 8, !tbaa !91
  store i32 %1, ptr %4, align 4, !tbaa !68
  %7 = load ptr, ptr %3, align 8
  %8 = getelementptr inbounds nuw %"struct.pbrt::WrapMode2D", ptr %7, i32 0, i32 0
  call void @llvm.lifetime.start.p0(i64 8, ptr %6) #19
  %9 = load i32, ptr %4, align 4, !tbaa !68
  store i32 %9, ptr %6, align 4, !tbaa !68
  %10 = getelementptr inbounds i32, ptr %6, i64 1
  %11 = load i32, ptr %4, align 4, !tbaa !68
  store i32 %11, ptr %10, align 4, !tbaa !68
  %12 = getelementptr inbounds nuw %"class.std::initializer_list.43", ptr %5, i32 0, i32 0
  store ptr %6, ptr %12, align 8, !tbaa !93
  %13 = getelementptr inbounds nuw %"class.std::initializer_list.43", ptr %5, i32 0, i32 1
  store i64 2, ptr %13, align 8, !tbaa !95
  %14 = getelementptr inbounds nuw { ptr, i64 }, ptr %5, i32 0, i32 0
  %15 = load ptr, ptr %14, align 8
  %16 = getelementptr inbounds nuw { ptr, i64 }, ptr %5, i32 0, i32 1
  %17 = load i64, ptr %16, align 8
  call void @_ZN4pstd5arrayIN4pbrt8WrapModeELi2EEC2ESt16initializer_listIS2_E(ptr noundef nonnull align 4 dereferenceable(8) %8, ptr %15, i64 %17)
  call void @llvm.lifetime.end.p0(i64 8, ptr %6) #19
  ret void
}

; Function Attrs: mustprogress nounwind uwtable
define linkonce_odr dso_local noundef nonnull align 8 dereferenceable(152) ptr @_ZNK4pstd6vectorIN4pbrt5ImageENS_3pmr21polymorphic_allocatorIS2_EEEixEm(ptr noundef nonnull align 8 dereferenceable(32) %0, i64 noundef %1) #6 comdat align 2 {
  %3 = alloca ptr, align 8
  %4 = alloca i64, align 8
  store ptr %0, ptr %3, align 8, !tbaa !84
  store i64 %1, ptr %4, align 8, !tbaa !96
  %5 = load ptr, ptr %3, align 8
  br label %6

6:                                                ; preds = %2
  br label %7

7:                                                ; preds = %6
  %8 = getelementptr inbounds nuw %"class.pstd::vector", ptr %5, i32 0, i32 1
  %9 = load ptr, ptr %8, align 8, !tbaa !86
  %10 = load i64, ptr %4, align 8, !tbaa !96
  %11 = getelementptr inbounds nuw %"class.pbrt::Image", ptr %9, i64 %10
  ret ptr %11
}

; Function Attrs: mustprogress uwtable
define dso_local noundef float @_ZNK4pbrt6MIPMap5TexelIfEET_iNS_6Point2IiEE(ptr noundef nonnull align 8 dereferenceable(52) %0, i32 noundef %1, i64 %2) #1 align 2 {
  %4 = alloca %"class.pbrt::Point2.1", align 4
  %5 = alloca ptr, align 8
  %6 = alloca i32, align 4
  %7 = alloca %"class.pbrt::Point2.1", align 4
  %8 = alloca %"struct.pbrt::WrapMode2D", align 4
  %9 = getelementptr inbounds nuw %"class.pbrt::Point2.1", ptr %4, i32 0, i32 0
  store i64 %2, ptr %9, align 4
  store ptr %0, ptr %5, align 8, !tbaa !13
  store i32 %1, ptr %6, align 4, !tbaa !30
  %10 = load ptr, ptr %5, align 8
  br label %11

11:                                               ; preds = %3
  br label %12

12:                                               ; preds = %11
  %13 = getelementptr inbounds nuw %"class.pbrt::MIPMap", ptr %10, i32 0, i32 0
  %14 = load i32, ptr %6, align 4, !tbaa !30
  %15 = sext i32 %14 to i64
  %16 = call noundef nonnull align 8 dereferenceable(152) ptr @_ZNK4pstd6vectorIN4pbrt5ImageENS_3pmr21polymorphic_allocatorIS2_EEEixEm(ptr noundef nonnull align 8 dereferenceable(32) %13, i64 noundef %15)
  call void @llvm.memcpy.p0.p0.i64(ptr align 4 %7, ptr align 4 %4, i64 8, i1 false)
  %17 = getelementptr inbounds nuw %"class.pbrt::MIPMap", ptr %10, i32 0, i32 2
  %18 = load i32, ptr %17, align 8, !tbaa !36
  call void @_ZN4pbrt10WrapMode2DC2ENS_8WrapModeE(ptr noundef nonnull align 4 dereferenceable(8) %8, i32 noundef %18)
  %19 = getelementptr inbounds nuw %"class.pbrt::Point2.1", ptr %7, i32 0, i32 0
  %20 = load i64, ptr %19, align 4
  %21 = getelementptr inbounds nuw %"struct.pbrt::WrapMode2D", ptr %8, i32 0, i32 0
  %22 = getelementptr inbounds nuw %"class.pstd::array", ptr %21, i32 0, i32 0
  %23 = load i64, ptr %22, align 4
  %24 = call noundef float @_ZNK4pbrt5Image10GetChannelENS_6Point2IiEEiNS_10WrapMode2DE(ptr noundef nonnull align 8 dereferenceable(152) %16, i64 %20, i32 noundef 0, i64 %23)
  ret float %24
}