; Function Attrs: mustprogress uwtable
define dso_local noundef float @_ZNK4pbrt6MIPMap5TexelIfEET_iNS_6Point2IiEE(ptr noundef nonnull readonly align 8 captures(none) dereferenceable(52) %0, i32 noundef %1, i64 %2) local_unnamed_addr #2 align 2 {
  %4 = sext i32 %1 to i64
  %5 = getelementptr inbounds nuw i8, ptr %0, i64 8
  %6 = load ptr, ptr %5, align 8, !tbaa !25
  %7 = getelementptr inbounds nuw %"class.pbrt::Image", ptr %6, i64 %4
  %8 = getelementptr inbounds nuw i8, ptr %0, i64 40
  %9 = load i32, ptr %8, align 8, !tbaa !26
  %.sroa.2.0.insert.ext = zext i32 %9 to i64
  %.sroa.2.0.insert.shift = shl nuw i64 %.sroa.2.0.insert.ext, 32
  %.sroa.0.0.insert.insert = or disjoint i64 %.sroa.2.0.insert.shift, %.sroa.2.0.insert.ext
  %10 = tail call noundef float @_ZNK4pbrt5Image10GetChannelENS_6Point2IiEEiNS_10WrapMode2DE(ptr noundef nonnull align 8 dereferenceable(152) %7, i64 %2, i32 noundef 0, i64 %.sroa.0.0.insert.insert)
  ret float %10
}